target datalayout = "e-m:e-p270:32:32-p271:32:32-p272:64:64-i64:64-i128:128-f80:128-n8:16:32:64-S128"
target triple = "x86_64-pc-linux-gnu"

%struct.recent_settings_tag = type { i8, i8, i8, i8, i8, i8, i8, i8, i8, i8, i32, i32, i32, i32, i32, i32, i8, i8, i32, i32, i8, i8, i8, i32, i32, i32, i32, i32, i32, i32, i32, i32, i8, i8, i32, i32, ptr, ptr, ptr, i8, i8, ptr, ptr, ptr, ptr, ptr, i32, ptr, i8, ptr, ptr, ptr }
%struct._e_prefs = type { ptr, i32, %struct.color_t, %struct.color_t, %struct.color_t, %struct.color_t, %struct.color_t, %struct.color_t, %struct.color_t, i8, i32, ptr, i32, %struct.color_t, %struct.color_t, i32, %struct.color_t, %struct.color_t, i32, %struct.color_t, %struct.color_t, %struct.color_t, %struct.color_t, ptr, ptr, i8, i8, i8, i32, i32, i32, ptr, i32, ptr, i8, i8, i8, ptr, ptr, ptr, i32, i32, i32, i32, i8, i32, i32, i32, i32, i32, ptr, i8, i8, i8, i8, i8, ptr, ptr, ptr, ptr, ptr, ptr, ptr, ptr, ptr, i8, i8, i8, i8, i32, i8, i8, i8, ptr, i32, i8, i8, i32, i8, i8, i8, i32, i8, i32, i8, i8, i8, i32, i32, i32, ptr, i8, i8, i8, i8, i8, i8, i32, i32, i8, i8, i8, i8, i32, i32, i32, i32, i8, i8, i32, i8, i8, i32, i32, i8, i8, i8, i32, i8, i8, i8 }
%struct.color_t = type { i16, i16, i16 }
%struct._col_width_data = type { i32, i8 }

@recent = hidden global %struct.recent_settings_tag zeroinitializer, align 8
@prefs = external global %struct._e_prefs, align 8

; Function Attrs: null_pointer_is_valid sspstrong uwtable
define hidden void @recent_insert_column(i32 noundef %0) #0 {
  %2 = alloca i32, align 4
  %3 = alloca ptr, align 8
  %4 = alloca i64, align 8
  %5 = alloca i64, align 8
  %6 = alloca ptr, align 8
  %7 = alloca ptr, align 8
  store i32 %0, ptr %2, align 4
  call void @llvm.lifetime.start.p0(i64 8, ptr %3) #13
  call void @llvm.lifetime.start.p0(i64 8, ptr %4) #13
  store i64 1, ptr %4, align 8
  call void @llvm.lifetime.start.p0(i64 8, ptr %5) #13
  store i64 8, ptr %5, align 8
  call void @llvm.lifetime.start.p0(i64 8, ptr %6) #13
  %8 = load i64, ptr %5, align 8
  %9 = icmp eq i64 %8, 1
  br i1 %9, label %10, label %13

10:                                               ; preds = %1
  %11 = load i64, ptr %4, align 8
  %12 = call noalias ptr @g_malloc(i64 noundef %11) #14
  store ptr %12, ptr %6, align 8
  br label %34

13:                                               ; preds = %1
  %14 = load i64, ptr %4, align 8
  %15 = call i1 @llvm.is.constant.i64(i64 %14)
  br i1 %15, label %16, label %29

16:                                               ; preds = %13
  %17 = load i64, ptr %5, align 8
  %18 = icmp eq i64 %17, 0
  br i1 %18, label %24, label %19

19:                                               ; preds = %16
  %20 = load i64, ptr %4, align 8
  %21 = load i64, ptr %5, align 8
  %22 = udiv i64 -1, %21
  %23 = icmp ule i64 %20, %22
  br i1 %23, label %24, label %29

24:                                               ; preds = %19, %16
  %25 = load i64, ptr %4, align 8
  %26 = load i64, ptr %5, align 8
  %27 = mul i64 %25, %26
  %28 = call noalias ptr @g_malloc(i64 noundef %27) #14
  store ptr %28, ptr %6, align 8
  br label %33

29:                                               ; preds = %19, %13
  %30 = load i64, ptr %4, align 8
  %31 = load i64, ptr %5, align 8
  %32 = call noalias ptr @g_malloc_n(i64 noundef %30, i64 noundef %31) #15
  store ptr %32, ptr %6, align 8
  br label %33

33:                                               ; preds = %29, %24
  br label %34

34:                                               ; preds = %33, %10
  %35 = load ptr, ptr %6, align 8
  store ptr %35, ptr %7, align 8
  call void @llvm.lifetime.end.p0(i64 8, ptr %6) #13
  call void @llvm.lifetime.end.p0(i64 8, ptr %5) #13
  call void @llvm.lifetime.end.p0(i64 8, ptr %4) #13
  %36 = load ptr, ptr %7, align 8
  store ptr %36, ptr %3, align 8
  %37 = load ptr, ptr %3, align 8
  %38 = getelementptr inbounds nuw %struct._col_width_data, ptr %37, i32 0, i32 0
  store i32 -1, ptr %38, align 4
  %39 = load ptr, ptr %3, align 8
  %40 = getelementptr inbounds nuw %struct._col_width_data, ptr %39, i32 0, i32 1
  store i8 0, ptr %40, align 4
  %41 = load ptr, ptr getelementptr inbounds nuw (%struct.recent_settings_tag, ptr @recent, i32 0, i32 41), align 8
  %42 = load ptr, ptr %3, align 8
  %43 = load i32, ptr %2, align 4
  %44 = call ptr @g_list_insert(ptr noundef %41, ptr noundef %42, i32 noundef %43)
  store ptr %44, ptr getelementptr inbounds nuw (%struct.recent_settings_tag, ptr @recent, i32 0, i32 41), align 8
  call void @llvm.lifetime.end.p0(i64 8, ptr %3) #13
  ret void
}

; Function Attrs: null_pointer_is_valid sspstrong uwtable
define hidden void @recent_set_column_xalign(i32 noundef %0, i8 noundef signext %1) #0 {
  %3 = alloca i32, align 4
  %4 = alloca i8, align 1
  %5 = alloca ptr, align 8
  %6 = alloca i32, align 4
  store i32 %0, ptr %3, align 4
  store i8 %1, ptr %4, align 1
  call void @llvm.lifetime.start.p0(i64 8, ptr %5) #13
  %7 = load ptr, ptr getelementptr inbounds nuw (%struct.recent_settings_tag, ptr @recent, i32 0, i32 41), align 8
  %8 = load i32, ptr %3, align 4
  %9 = call ptr @g_list_nth_data(ptr noundef %7, i32 noundef %8)
  store ptr %9, ptr %5, align 8
  %10 = load ptr, ptr %5, align 8
  %11 = icmp ne ptr %10, null
  br i1 %11, label %12, label %16

12:                                               ; preds = %2
  %13 = load i8, ptr %4, align 1
  %14 = load ptr, ptr %5, align 8
  %15 = getelementptr inbounds nuw %struct._col_width_data, ptr %14, i32 0, i32 1
  store i8 %13, ptr %15, align 4
  br label %41

16:                                               ; preds = %2
  call void @llvm.lifetime.start.p0(i64 4, ptr %6) #13
  %17 = load ptr, ptr getelementptr inbounds nuw (%struct.recent_settings_tag, ptr @recent, i32 0, i32 41), align 8
  %18 = call i32 @g_list_length(ptr noundef %17)
  store i32 %18, ptr %6, align 4
  br label %19

19:                                               ; preds = %27, %16
  %20 = load i32, ptr %6, align 4
  %21 = load ptr, ptr @prefs, align 8
  %22 = call i32 @g_list_length(ptr noundef %21)
  %23 = icmp ult i32 %20, %22
  br i1 %23, label %25, label %24

24:                                               ; preds = %19
  call void @llvm.lifetime.end.p0(i64 4, ptr %6) #13
  br label %30

25:                                               ; preds = %19
  %26 = load i32, ptr %6, align 4
  call void @recent_insert_column(i32 noundef %26)
  br label %27

27:                                               ; preds = %25
  %28 = load i32, ptr %6, align 4
  %29 = add i32 %28, 1
  store i32 %29, ptr %6, align 4
  br label %19, !llvm.loop !19

30:                                               ; preds = %24
  %31 = load ptr, ptr getelementptr inbounds nuw (%struct.recent_settings_tag, ptr @recent, i32 0, i32 41), align 8
  %32 = load i32, ptr %3, align 4
  %33 = call ptr @g_list_nth_data(ptr noundef %31, i32 noundef %32)
  store ptr %33, ptr %5, align 8
  %34 = load ptr, ptr %5, align 8
  %35 = icmp ne ptr %34, null
  br i1 %35, label %36, label %40

36:                                               ; preds = %30
  %37 = load i8, ptr %4, align 1
  %38 = load ptr, ptr %5, align 8
  %39 = getelementptr inbounds nuw %struct._col_width_data, ptr %38, i32 0, i32 1
  store i8 %37, ptr %39, align 4
  br label %40

40:                                               ; preds = %36, %30
  br label %41

41:                                               ; preds = %40, %12
  call void @llvm.lifetime.end.p0(i64 8, ptr %5) #13
  ret void
}