; Function Attrs: null_pointer_is_valid sspstrong uwtable
define hidden void @recent_set_column_xalign(i32 noundef %0, i8 noundef signext %1) local_unnamed_addr #0 {
  %3 = load ptr, ptr getelementptr inbounds nuw (i8, ptr @recent, i64 136), align 8
  %4 = tail call ptr @g_list_nth_data(ptr noundef %3, i32 noundef %0)
  %.not = icmp eq ptr %4, null
  br i1 %.not, label %5, label %.sink.split

5:                                                ; preds = %2
  %6 = load ptr, ptr getelementptr inbounds nuw (i8, ptr @recent, i64 136), align 8
  %7 = tail call i32 @g_list_length(ptr noundef %6)
  %8 = load ptr, ptr @prefs, align 8
  %9 = tail call i32 @g_list_length(ptr noundef %8)
  %10 = icmp ult i32 %7, %9
  br i1 %10, label %.lr.ph, label %._crit_edge

._crit_edge:                                      ; preds = %.lr.ph, %5
  %11 = load ptr, ptr getelementptr inbounds nuw (i8, ptr @recent, i64 136), align 8
  %12 = tail call ptr @g_list_nth_data(ptr noundef %11, i32 noundef %0)
  %.not12 = icmp eq ptr %12, null
  br i1 %.not12, label %22, label %.sink.split

.lr.ph:                                           ; preds = %5, %.lr.ph
  %.013 = phi i32 [ %17, %.lr.ph ], [ %7, %5 ]
  %13 = tail call noalias dereferenceable_or_null(8) ptr @g_malloc(i64 noundef 8) #12
  store i32 -1, ptr %13, align 4
  %14 = getelementptr inbounds nuw i8, ptr %13, i64 4
  store i8 0, ptr %14, align 4
  %15 = load ptr, ptr getelementptr inbounds nuw (i8, ptr @recent, i64 136), align 8
  %16 = tail call ptr @g_list_insert(ptr noundef %15, ptr noundef %13, i32 noundef %.013)
  store ptr %16, ptr getelementptr inbounds nuw (i8, ptr @recent, i64 136), align 8
  %17 = add nuw i32 %.013, 1
  %18 = load ptr, ptr @prefs, align 8
  %19 = tail call i32 @g_list_length(ptr noundef %18)
  %20 = icmp ult i32 %17, %19
  br i1 %20, label %.lr.ph, label %._crit_edge, !llvm.loop !20

.sink.split:                                      ; preds = %._crit_edge, %2
  %.sink14 = phi ptr [ %4, %2 ], [ %12, %._crit_edge ]
  %21 = getelementptr inbounds nuw i8, ptr %.sink14, i64 4
  store i8 %1, ptr %21, align 4
  br label %22

22:                                               ; preds = %.sink.split, %._crit_edge
  ret void
}